; Function Attrs: mustprogress uwtable
define void @_ZN6casadi6Nlpsol16get_sparsity_outEx(ptr dead_on_unwind noalias writable sret(%"class.casadi::Sparsity") align 8 %0, ptr noundef nonnull align 8 dereferenceable(1928) %1, i64 noundef %2) unnamed_addr #3 align 2 {
  %4 = trunc i64 %2 to i32
  switch i32 %4, label %28 [
    i32 1, label %5
    i32 0, label %8
    i32 3, label %8
    i32 4, label %11
    i32 2, label %11
    i32 5, label %24
  ]

5:                                                ; preds = %3
  %6 = getelementptr inbounds i8, ptr %1, i64 1304
  %7 = tail call noundef nonnull align 8 dereferenceable(8) ptr @_ZNK6casadi8Function12sparsity_outEx(ptr noundef nonnull align 8 dereferenceable(8) %6, i64 noundef 0)
  tail call void @_ZN6casadi12SharedObjectC2ERKS0_(ptr noundef nonnull align 8 dereferenceable(8) %0, ptr noundef nonnull align 8 dereferenceable(8) %7)
  br label %29

8:                                                ; preds = %3, %3
  %9 = getelementptr inbounds i8, ptr %1, i64 1304
  %10 = tail call noundef nonnull align 8 dereferenceable(8) ptr @_ZNK6casadi8Function11sparsity_inEx(ptr noundef nonnull align 8 dereferenceable(8) %9, i64 noundef 0)
  tail call void @_ZN6casadi12SharedObjectC2ERKS0_(ptr noundef nonnull align 8 dereferenceable(8) %0, ptr noundef nonnull align 8 dereferenceable(8) %10)
  br label %29

11:                                               ; preds = %3, %3
  %12 = getelementptr inbounds i8, ptr %1, i64 1760
  %13 = load ptr, ptr %12, align 8
  %14 = getelementptr inbounds i8, ptr %1, i64 1768
  %15 = load ptr, ptr %14, align 8
  %16 = icmp eq ptr %13, %15
  br i1 %16, label %17, label %20

17:                                               ; preds = %11
  %18 = getelementptr inbounds i8, ptr %1, i64 1304
  %19 = tail call noundef nonnull align 8 dereferenceable(8) ptr @_ZNK6casadi8Function12sparsity_outEx(ptr noundef nonnull align 8 dereferenceable(8) %18, i64 noundef 1)
  tail call void @_ZN6casadi12SharedObjectC2ERKS0_(ptr noundef nonnull align 8 dereferenceable(8) %0, ptr noundef nonnull align 8 dereferenceable(8) %19)
  br label %29

20:                                               ; preds = %11
  %21 = ptrtoint ptr %15 to i64
  %22 = ptrtoint ptr %13 to i64
  %23 = sub i64 %21, %22
  tail call void @_ZN6casadi8Sparsity5denseExx(ptr dead_on_unwind writable sret(%"class.casadi::Sparsity") align 8 %0, i64 noundef %23, i64 noundef 1)
  br label %29

24:                                               ; preds = %3
  %25 = load ptr, ptr %1, align 8
  %26 = getelementptr inbounds i8, ptr %25, i64 776
  %27 = load ptr, ptr %26, align 8
  tail call void %27(ptr dead_on_unwind writable sret(%"class.casadi::Sparsity") align 8 %0, ptr noundef nonnull align 8 dereferenceable(1928) %1, i64 noundef 1)
  br label %29

28:                                               ; preds = %3
  tail call void @_ZN6casadi8SparsityC1Ex(ptr noundef nonnull align 8 dereferenceable(8) %0, i64 noundef 0)
  br label %29

29:                                               ; preds = %28, %24, %20, %17, %8, %5
  ret void
}